(dp0
S'itemOne'
p1
S'5jVDB0sTUntE1jYDi8ADUdmIG'
p2
sS'itemFour'
p3
S'4KSNu5E4PPnp5RItux6J8rs5g5vved0trNWEvjPAFabtQ'
p4
sS'itemTwo'
p5
S'UA7Gu7H082KS945aODxTeG2XcgPvHzQcqYdRKi5vhS8OzbPgy1'
p6
sS'itemThree'
p7
S'2535779829-UORPwp6LAtrSSNg3XbJJZ1NX4AdGRA6jxiQAAeF'
p8
s.