(dp0
S'itemOne'
p1
S'0M9vmkbjarKOA5y7qdfvg8GnR'
p2
sS'itemFour'
p3
S'kEFKhZL1McWnrHD65SdE7Ttr4imgIVeK8rQj4P5Q6TeNf'
p4
sS'itemTwo'
p5
S'bGFHK6qcOq4xBti47Pu6kFDdjDDchwiLAL3uCva8I4BP2wkklO'
p6
sS'itemThree'
p7
S'2894678879-E2xIMKCjArqrcwEz2WfFhGDOUv2cEEa7SXCl8O5'
p8
s.